; ModuleID = '58/1007.c'
source_filename = "58/1007.c"
target datalayout = "e-m:e-p270:32:32-p271:32:32-p272:64:64-i64:64-f80:128-n8:16:32:64-S128"
target triple = "x86_64-pc-linux-gnu"

@.str = private unnamed_addr constant [4 x i8] c"%d\0A\00", align 1
@.str.1 = private unnamed_addr constant [2 x i8] c"0\00", align 1
@.str.2 = private unnamed_addr constant [2 x i8] c"1\00", align 1
@.str.3 = private unnamed_addr constant [2 x i8] c"\0A\00", align 1

; Function Attrs: noinline nounwind uwtable
define dso_local void @main() #0 {
  %1 = alloca [100 x [81 x i8]], align 16
  %2 = alloca i32, align 4
  %3 = alloca i32, align 4
  %4 = alloca i32, align 4
  %5 = call i32 (i8*, ...) @__isoc99_scanf(i8* getelementptr inbounds ([4 x i8], [4 x i8]* @.str, i64 0, i64 0), i32* %2)
  store i32 0, i32* %3, align 4
  br label %6

6:                                                ; preds = %16, %0
  %7 = load i32, i32* %3, align 4
  %8 = load i32, i32* %2, align 4
  %9 = icmp slt i32 %7, %8
  br i1 %9, label %10, label %19

10:                                               ; preds = %6
  %11 = load i32, i32* %3, align 4
  %12 = sext i32 %11 to i64
  %13 = getelementptr inbounds [100 x [81 x i8]], [100 x [81 x i8]]* %1, i64 0, i64 %12
  %14 = getelementptr inbounds [81 x i8], [81 x i8]* %13, i64 0, i64 0
  %15 = call i32 (i8*, ...) bitcast (i32 (...)* @gets to i32 (i8*, ...)*)(i8* %14)
  br label %16

16:                                               ; preds = %10
  %17 = load i32, i32* %3, align 4
  %18 = add nsw i32 %17, 1
  store i32 %18, i32* %3, align 4
  br label %6

19:                                               ; preds = %6
  store i32 0, i32* %3, align 4
  br label %20

20:                                               ; preds = %189, %19
  %21 = load i32, i32* %3, align 4
  %22 = load i32, i32* %2, align 4
  %23 = icmp slt i32 %21, %22
  br i1 %23, label %24, label %192

24:                                               ; preds = %20
  %25 = getelementptr inbounds [100 x [81 x i8]], [100 x [81 x i8]]* %1, i64 0, i64 0
  %26 = load i32, i32* %3, align 4
  %27 = sext i32 %26 to i64
  %28 = getelementptr inbounds [81 x i8], [81 x i8]* %25, i64 %27
  %29 = getelementptr inbounds [81 x i8], [81 x i8]* %28, i64 0, i64 0
  %30 = load i8, i8* %29, align 1
  %31 = sext i8 %30 to i32
  %32 = icmp sge i32 %31, 65
  br i1 %32, label %33, label %42

33:                                               ; preds = %24
  %34 = getelementptr inbounds [100 x [81 x i8]], [100 x [81 x i8]]* %1, i64 0, i64 0
  %35 = load i32, i32* %3, align 4
  %36 = sext i32 %35 to i64
  %37 = getelementptr inbounds [81 x i8], [81 x i8]* %34, i64 %36
  %38 = getelementptr inbounds [81 x i8], [81 x i8]* %37, i64 0, i64 0
  %39 = load i8, i8* %38, align 1
  %40 = sext i8 %39 to i32
  %41 = icmp sle i32 %40, 90
  br i1 %41, label %69, label %42

42:                                               ; preds = %33, %24
  %43 = getelementptr inbounds [100 x [81 x i8]], [100 x [81 x i8]]* %1, i64 0, i64 0
  %44 = load i32, i32* %3, align 4
  %45 = sext i32 %44 to i64
  %46 = getelementptr inbounds [81 x i8], [81 x i8]* %43, i64 %45
  %47 = getelementptr inbounds [81 x i8], [81 x i8]* %46, i64 0, i64 0
  %48 = load i8, i8* %47, align 1
  %49 = sext i8 %48 to i32
  %50 = icmp sge i32 %49, 97
  br i1 %50, label %51, label %60

51:                                               ; preds = %42
  %52 = getelementptr inbounds [100 x [81 x i8]], [100 x [81 x i8]]* %1, i64 0, i64 0
  %53 = load i32, i32* %3, align 4
  %54 = sext i32 %53 to i64
  %55 = getelementptr inbounds [81 x i8], [81 x i8]* %52, i64 %54
  %56 = getelementptr inbounds [81 x i8], [81 x i8]* %55, i64 0, i64 0
  %57 = load i8, i8* %56, align 1
  %58 = sext i8 %57 to i32
  %59 = icmp sle i32 %58, 122
  br i1 %59, label %69, label %60

60:                                               ; preds = %51, %42
  %61 = getelementptr inbounds [100 x [81 x i8]], [100 x [81 x i8]]* %1, i64 0, i64 0
  %62 = load i32, i32* %3, align 4
  %63 = sext i32 %62 to i64
  %64 = getelementptr inbounds [81 x i8], [81 x i8]* %61, i64 %63
  %65 = getelementptr inbounds [81 x i8], [81 x i8]* %64, i64 0, i64 0
  %66 = load i8, i8* %65, align 1
  %67 = sext i8 %66 to i32
  %68 = icmp eq i32 %67, 95
  br i1 %68, label %69, label %185

69:                                               ; preds = %60, %51, %33
  store i32 1, i32* %4, align 4
  br label %70

70:                                               ; preds = %167, %69
  %71 = load i32, i32* %3, align 4
  %72 = sext i32 %71 to i64
  %73 = getelementptr inbounds [100 x [81 x i8]], [100 x [81 x i8]]* %1, i64 0, i64 %72
  %74 = load i32, i32* %4, align 4
  %75 = sext i32 %74 to i64
  %76 = getelementptr inbounds [81 x i8], [81 x i8]* %73, i64 0, i64 %75
  %77 = load i8, i8* %76, align 1
  %78 = sext i8 %77 to i32
  %79 = icmp ne i32 %78, 0
  br i1 %79, label %80, label %170

80:                                               ; preds = %70
  %81 = getelementptr inbounds [100 x [81 x i8]], [100 x [81 x i8]]* %1, i64 0, i64 0
  %82 = load i32, i32* %3, align 4
  %83 = sext i32 %82 to i64
  %84 = getelementptr inbounds [81 x i8], [81 x i8]* %81, i64 %83
  %85 = getelementptr inbounds [81 x i8], [81 x i8]* %84, i64 0, i64 0
  %86 = load i32, i32* %4, align 4
  %87 = sext i32 %86 to i64
  %88 = getelementptr inbounds i8, i8* %85, i64 %87
  %89 = load i8, i8* %88, align 1
  %90 = sext i8 %89 to i32
  %91 = icmp sge i32 %90, 65
  br i1 %91, label %92, label %104

92:                                               ; preds = %80
  %93 = getelementptr inbounds [100 x [81 x i8]], [100 x [81 x i8]]* %1, i64 0, i64 0
  %94 = load i32, i32* %3, align 4
  %95 = sext i32 %94 to i64
  %96 = getelementptr inbounds [81 x i8], [81 x i8]* %93, i64 %95
  %97 = getelementptr inbounds [81 x i8], [81 x i8]* %96, i64 0, i64 0
  %98 = load i32, i32* %4, align 4
  %99 = sext i32 %98 to i64
  %100 = getelementptr inbounds i8, i8* %97, i64 %99
  %101 = load i8, i8* %100, align 1
  %102 = sext i8 %101 to i32
  %103 = icmp sle i32 %102, 90
  br i1 %103, label %164, label %104

104:                                              ; preds = %92, %80
  %105 = getelementptr inbounds [100 x [81 x i8]], [100 x [81 x i8]]* %1, i64 0, i64 0
  %106 = load i32, i32* %3, align 4
  %107 = sext i32 %106 to i64
  %108 = getelementptr inbounds [81 x i8], [81 x i8]* %105, i64 %107
  %109 = getelementptr inbounds [81 x i8], [81 x i8]* %108, i64 0, i64 0
  %110 = load i32, i32* %4, align 4
  %111 = sext i32 %110 to i64
  %112 = getelementptr inbounds i8, i8* %109, i64 %111
  %113 = load i8, i8* %112, align 1
  %114 = sext i8 %113 to i32
  %115 = icmp sge i32 %114, 97
  br i1 %115, label %116, label %128

116:                                              ; preds = %104
  %117 = getelementptr inbounds [100 x [81 x i8]], [100 x [81 x i8]]* %1, i64 0, i64 0
  %118 = load i32, i32* %3, align 4
  %119 = sext i32 %118 to i64
  %120 = getelementptr inbounds [81 x i8], [81 x i8]* %117, i64 %119
  %121 = getelementptr inbounds [81 x i8], [81 x i8]* %120, i64 0, i64 0
  %122 = load i32, i32* %4, align 4
  %123 = sext i32 %122 to i64
  %124 = getelementptr inbounds i8, i8* %121, i64 %123
  %125 = load i8, i8* %124, align 1
  %126 = sext i8 %125 to i32
  %127 = icmp sle i32 %126, 122
  br i1 %127, label %164, label %128

128:                                              ; preds = %116, %104
  %129 = getelementptr inbounds [100 x [81 x i8]], [100 x [81 x i8]]* %1, i64 0, i64 0
  %130 = load i32, i32* %3, align 4
  %131 = sext i32 %130 to i64
  %132 = getelementptr inbounds [81 x i8], [81 x i8]* %129, i64 %131
  %133 = getelementptr inbounds [81 x i8], [81 x i8]* %132, i64 0, i64 0
  %134 = load i32, i32* %4, align 4
  %135 = sext i32 %134 to i64
  %136 = getelementptr inbounds i8, i8* %133, i64 %135
  %137 = load i8, i8* %136, align 1
  %138 = sext i8 %137 to i32
  %139 = icmp sge i32 %138, 48
  br i1 %139, label %140, label %152

140:                                              ; preds = %128
  %141 = getelementptr inbounds [100 x [81 x i8]], [100 x [81 x i8]]* %1, i64 0, i64 0
  %142 = load i32, i32* %3, align 4
  %143 = sext i32 %142 to i64
  %144 = getelementptr inbounds [81 x i8], [81 x i8]* %141, i64 %143
  %145 = getelementptr inbounds [81 x i8], [81 x i8]* %144, i64 0, i64 0
  %146 = load i32, i32* %4, align 4
  %147 = sext i32 %146 to i64
  %148 = getelementptr inbounds i8, i8* %145, i64 %147
  %149 = load i8, i8* %148, align 1
  %150 = sext i8 %149 to i32
  %151 = icmp sle i32 %150, 57
  br i1 %151, label %164, label %152

152:                                              ; preds = %140, %128
  %153 = getelementptr inbounds [100 x [81 x i8]], [100 x [81 x i8]]* %1, i64 0, i64 0
  %154 = load i32, i32* %3, align 4
  %155 = sext i32 %154 to i64
  %156 = getelementptr inbounds [81 x i8], [81 x i8]* %153, i64 %155
  %157 = getelementptr inbounds [81 x i8], [81 x i8]* %156, i64 0, i64 0
  %158 = load i32, i32* %4, align 4
  %159 = sext i32 %158 to i64
  %160 = getelementptr inbounds i8, i8* %157, i64 %159
  %161 = load i8, i8* %160, align 1
  %162 = sext i8 %161 to i32
  %163 = icmp eq i32 %162, 95
  br i1 %163, label %164, label %165

164:                                              ; preds = %152, %140, %116, %92
  br label %166

165:                                              ; preds = %152
  br label %170

166:                                              ; preds = %164
  br label %167

167:                                              ; preds = %166
  %168 = load i32, i32* %4, align 4
  %169 = add nsw i32 %168, 1
  store i32 %169, i32* %4, align 4
  br label %70

170:                                              ; preds = %165, %70
  %171 = load i32, i32* %3, align 4
  %172 = sext i32 %171 to i64
  %173 = getelementptr inbounds [100 x [81 x i8]], [100 x [81 x i8]]* %1, i64 0, i64 %172
  %174 = load i32, i32* %4, align 4
  %175 = sext i32 %174 to i64
  %176 = getelementptr inbounds [81 x i8], [81 x i8]* %173, i64 0, i64 %175
  %177 = load i8, i8* %176, align 1
  %178 = sext i8 %177 to i32
  %179 = icmp ne i32 %178, 0
  br i1 %179, label %180, label %182

180:                                              ; preds = %170
  %181 = call i32 (i8*, ...) @printf(i8* getelementptr inbounds ([2 x i8], [2 x i8]* @.str.1, i64 0, i64 0))
  br label %184

182:                                              ; preds = %170
  %183 = call i32 (i8*, ...) @printf(i8* getelementptr inbounds ([2 x i8], [2 x i8]* @.str.2, i64 0, i64 0))
  br label %184

184:                                              ; preds = %182, %180
  br label %187

185:                                              ; preds = %60
  %186 = call i32 (i8*, ...) @printf(i8* getelementptr inbounds ([2 x i8], [2 x i8]* @.str.1, i64 0, i64 0))
  br label %187

187:                                              ; preds = %185, %184
  %188 = call i32 (i8*, ...) @printf(i8* getelementptr inbounds ([2 x i8], [2 x i8]* @.str.3, i64 0, i64 0))
  br label %189

189:                                              ; preds = %187
  %190 = load i32, i32* %3, align 4
  %191 = add nsw i32 %190, 1
  store i32 %191, i32* %3, align 4
  br label %20

192:                                              ; preds = %20
  ret void
}

declare dso_local i32 @__isoc99_scanf(i8*, ...) #1

declare dso_local i32 @gets(...) #1

declare dso_local i32 @printf(i8*, ...) #1


!llvm.module.flags = !{!0}
!llvm.ident = !{!1}

!0 = !{i32 1, !"wchar_size", i32 4}
!1 = !{!"clang version 10.0.0-4ubuntu1 "}
