; ModuleID = 'source-C-CXX/57/1007.c'
source_filename = "source-C-CXX/57/1007.c"
target datalayout = "e-m:e-p270:32:32-p271:32:32-p272:64:64-i64:64-f80:128-n8:16:32:64-S128"
target triple = "x86_64-pc-linux-gnu"

@.str = private unnamed_addr constant [4 x i8] c"%d\0A\00", align 1

; Function Attrs: nounwind sspstrong uwtable
define dso_local void @main() local_unnamed_addr #0 {
  %1 = alloca [100 x [81 x i8]], align 16
  %2 = alloca i32, align 4
  %3 = getelementptr inbounds [100 x [81 x i8]], [100 x [81 x i8]]* %1, i64 0, i64 0, i64 0
  call void @llvm.lifetime.start.p0i8(i64 8100, i8* nonnull %3) #5
  %4 = bitcast i32* %2 to i8*
  call void @llvm.lifetime.start.p0i8(i64 4, i8* nonnull %4) #5
  %5 = call i32 (i8*, ...) @__isoc99_scanf(i8* getelementptr inbounds ([4 x i8], [4 x i8]* @.str, i64 0, i64 0), i32* nonnull %2)
  %6 = load i32, i32* %2, align 4, !tbaa !5
  %7 = icmp sgt i32 %6, 0
  br i1 %7, label %10, label %57

8:                                                ; preds = %10
  %9 = icmp sgt i32 %15, 0
  br i1 %9, label %18, label %57

10:                                               ; preds = %0, %10
  %11 = phi i64 [ %14, %10 ], [ 0, %0 ]
  %12 = getelementptr inbounds [100 x [81 x i8]], [100 x [81 x i8]]* %1, i64 0, i64 %11, i64 0
  %13 = call i32 (i8*, ...) bitcast (i32 (...)* @gets to i32 (i8*, ...)*)(i8* nonnull %12) #5
  %14 = add nuw nsw i64 %11, 1
  %15 = load i32, i32* %2, align 4, !tbaa !5
  %16 = sext i32 %15 to i64
  %17 = icmp slt i64 %14, %16
  br i1 %17, label %10, label %8, !llvm.loop !9

18:                                               ; preds = %8, %49
  %19 = phi i64 [ %53, %49 ], [ 0, %8 ]
  %20 = getelementptr inbounds [100 x [81 x i8]], [100 x [81 x i8]]* %1, i64 0, i64 %19, i64 0
  %21 = load i8, i8* %20, align 1, !tbaa !11
  %22 = add i8 %21, -65
  %23 = icmp ult i8 %22, 26
  br i1 %23, label %29, label %24

24:                                               ; preds = %18
  %25 = add i8 %21, -97
  %26 = icmp ult i8 %25, 26
  %27 = icmp eq i8 %21, 95
  %28 = or i1 %27, %26
  br i1 %28, label %29, label %49

29:                                               ; preds = %24, %18
  %30 = getelementptr inbounds [100 x [81 x i8]], [100 x [81 x i8]]* %1, i64 0, i64 %19, i64 1
  %31 = load i8, i8* %30, align 1, !tbaa !11
  %32 = icmp eq i8 %31, 0
  br i1 %32, label %49, label %33

33:                                               ; preds = %29, %44
  %34 = phi i64 [ %45, %44 ], [ 1, %29 ]
  %35 = phi i8 [ %47, %44 ], [ %31, %29 ]
  %36 = and i8 %35, -33
  %37 = add i8 %36, -65
  %38 = icmp ult i8 %37, 26
  br i1 %38, label %44, label %39

39:                                               ; preds = %33
  %40 = add i8 %35, -48
  %41 = icmp ult i8 %40, 10
  %42 = icmp eq i8 %35, 95
  %43 = or i1 %42, %41
  br i1 %43, label %44, label %49

44:                                               ; preds = %39, %33
  %45 = add nuw i64 %34, 1
  %46 = getelementptr inbounds [100 x [81 x i8]], [100 x [81 x i8]]* %1, i64 0, i64 %19, i64 %45
  %47 = load i8, i8* %46, align 1, !tbaa !11
  %48 = icmp eq i8 %47, 0
  br i1 %48, label %49, label %33, !llvm.loop !12

49:                                               ; preds = %44, %39, %24, %29
  %50 = phi i32 [ 49, %29 ], [ 48, %24 ], [ 48, %39 ], [ 49, %44 ]
  %51 = call i32 @putchar(i32 %50)
  %52 = call i32 @putchar(i32 10)
  %53 = add nuw nsw i64 %19, 1
  %54 = load i32, i32* %2, align 4, !tbaa !5
  %55 = sext i32 %54 to i64
  %56 = icmp slt i64 %53, %55
  br i1 %56, label %18, label %57, !llvm.loop !13

57:                                               ; preds = %49, %0, %8
  call void @llvm.lifetime.end.p0i8(i64 4, i8* nonnull %4) #5
  call void @llvm.lifetime.end.p0i8(i64 8100, i8* nonnull %3) #5
  ret void
}

; Function Attrs: argmemonly mustprogress nofree nosync nounwind willreturn
declare void @llvm.lifetime.start.p0i8(i64 immarg, i8* nocapture) #1

; Function Attrs: nofree nounwind
declare noundef i32 @__isoc99_scanf(i8* nocapture noundef readonly, ...) local_unnamed_addr #2

declare i32 @gets(...) local_unnamed_addr #3

; Function Attrs: argmemonly mustprogress nofree nosync nounwind willreturn
declare void @llvm.lifetime.end.p0i8(i64 immarg, i8* nocapture) #1

; Function Attrs: nofree nounwind
declare noundef i32 @putchar(i32 noundef) local_unnamed_addr #4


!llvm.module.flags = !{!0, !1, !2, !3}
!llvm.ident = !{!4}

!0 = !{i32 1, !"wchar_size", i32 4}
!1 = !{i32 7, !"PIC Level", i32 2}
!2 = !{i32 7, !"PIE Level", i32 2}
!3 = !{i32 7, !"uwtable", i32 1}
!4 = !{!"clang version 13.0.0"}
!5 = !{!6, !6, i64 0}
!6 = !{!"int", !7, i64 0}
!7 = !{!"omnipotent char", !8, i64 0}
!8 = !{!"Simple C/C++ TBAA"}
!9 = distinct !{!9, !10}
!10 = !{!"llvm.loop.mustprogress"}
!11 = !{!7, !7, i64 0}
!12 = distinct !{!12, !10}
!13 = distinct !{!13, !10}
